target datalayout = "e-m:e-p270:32:32-p271:32:32-p272:64:64-i64:64-i128:128-f80:128-n8:16:32:64-S128"
target triple = "x86_64-pc-linux-gnu"

%struct._object = type { %union.anon, ptr }
%union.anon = type { i64 }

@.str = private unnamed_addr constant [5 x i8] c"bool\00", align 1
@_Py_FalseStruct = dso_local global { %struct._object, { i64, [1 x i32], [4 x i8] } } { %struct._object { %union.anon { i64 552977039360 }, ptr @PyBool_Type }, { i64, [1 x i32], [4 x i8] } { i64 1, [1 x i32] zeroinitializer, [4 x i8] zeroinitializer } }, align 8
@_Py_TrueStruct = dso_local global { %struct._object, { i64, [1 x i32], [4 x i8] } } { %struct._object { %union.anon { i64 552977039360 }, ptr @PyBool_Type }, { i64, [1 x i32], [4 x i8] } { i64 8, [1 x i32] [i32 1], [4 x i8] zeroinitializer } }, align 8

; Function Attrs: nounwind uwtable
define dso_local ptr @PyBool_FromLong(i64 noundef %0) #0 {
  %2 = alloca i64, align 8
  store i64 %0, ptr %2, align 8, !tbaa !4
  %3 = load i64, ptr %2, align 8, !tbaa !4
  %4 = icmp ne i64 %3, 0
  %5 = select i1 %4, ptr @_Py_TrueStruct, ptr @_Py_FalseStruct
  ret ptr %5
}

; Function Attrs: inlinehint nounwind uwtable
define internal i64 @_PyVectorcall_NARGS(i64 noundef %0) #2 {
  %2 = alloca i64, align 8
  store i64 %0, ptr %2, align 8, !tbaa !4
  %3 = load i64, ptr %2, align 8, !tbaa !4
  %4 = and i64 %3, 9223372036854775807
  ret i64 %4
}

; Function Attrs: nounwind uwtable
define internal ptr @bool_vectorcall(ptr noundef %0, ptr noundef %1, i64 noundef %2, ptr noundef %3) #0 {
  %5 = alloca ptr, align 8
  %6 = alloca ptr, align 8
  %7 = alloca ptr, align 8
  %8 = alloca i64, align 8
  %9 = alloca ptr, align 8
  %10 = alloca i64, align 8
  %11 = alloca i32, align 4
  %12 = alloca i64, align 8
  store ptr %0, ptr %6, align 8, !tbaa !8
  store ptr %1, ptr %7, align 8, !tbaa !13
  store i64 %2, ptr %8, align 8, !tbaa !4
  store ptr %3, ptr %9, align 8, !tbaa !8
  call void @llvm.lifetime.start.p0(i64 8, ptr %10) #4
  store i64 0, ptr %10, align 8, !tbaa !4
  %13 = load ptr, ptr %9, align 8, !tbaa !8
  %14 = icmp eq ptr %13, null
  br i1 %14, label %20, label %15

15:                                               ; preds = %4
  %16 = load ptr, ptr %9, align 8, !tbaa !8
  %17 = call i32 @_PyArg_NoKwnames(ptr noundef @.str, ptr noundef %16)
  %18 = icmp ne i32 %17, 0
  br i1 %18, label %20, label %19

19:                                               ; preds = %15
  store ptr null, ptr %5, align 8
  store i32 1, ptr %11, align 4
  br label %50

20:                                               ; preds = %15, %4
  call void @llvm.lifetime.start.p0(i64 8, ptr %12) #4
  %21 = load i64, ptr %8, align 8, !tbaa !4
  %22 = call i64 @_PyVectorcall_NARGS(i64 noundef %21)
  store i64 %22, ptr %12, align 8, !tbaa !4
  %23 = load i64, ptr %12, align 8, !tbaa !4
  %24 = icmp sle i64 0, %23
  br i1 %24, label %25, label %28

25:                                               ; preds = %20
  %26 = load i64, ptr %12, align 8, !tbaa !4
  %27 = icmp sle i64 %26, 1
  br i1 %27, label %33, label %28

28:                                               ; preds = %25, %20
  %29 = load i64, ptr %12, align 8, !tbaa !4
  %30 = call i32 @_PyArg_CheckPositional(ptr noundef @.str, i64 noundef %29, i64 noundef 0, i64 noundef 1)
  %31 = icmp ne i32 %30, 0
  br i1 %31, label %33, label %32

32:                                               ; preds = %28
  store ptr null, ptr %5, align 8
  store i32 1, ptr %11, align 4
  br label %49

33:                                               ; preds = %28, %25
  %34 = load i64, ptr %12, align 8, !tbaa !4
  %35 = icmp ne i64 %34, 0
  br i1 %35, label %36, label %46

36:                                               ; preds = %33
  %37 = load ptr, ptr %7, align 8, !tbaa !13
  %38 = getelementptr ptr, ptr %37, i64 0
  %39 = load ptr, ptr %38, align 8, !tbaa !8
  %40 = call i32 @PyObject_IsTrue(ptr noundef %39)
  %41 = sext i32 %40 to i64
  store i64 %41, ptr %10, align 8, !tbaa !4
  %42 = load i64, ptr %10, align 8, !tbaa !4
  %43 = icmp slt i64 %42, 0
  br i1 %43, label %44, label %45

44:                                               ; preds = %36
  store ptr null, ptr %5, align 8
  store i32 1, ptr %11, align 4
  br label %49

45:                                               ; preds = %36
  br label %46

46:                                               ; preds = %45, %33
  %47 = load i64, ptr %10, align 8, !tbaa !4
  %48 = call ptr @PyBool_FromLong(i64 noundef %47)
  store ptr %48, ptr %5, align 8
  store i32 1, ptr %11, align 4
  br label %49

49:                                               ; preds = %46, %44, %32
  call void @llvm.lifetime.end.p0(i64 8, ptr %12) #4
  br label %50

50:                                               ; preds = %49, %19
  call void @llvm.lifetime.end.p0(i64 8, ptr %10) #4
  %51 = load ptr, ptr %5, align 8
  ret ptr %51
}