; Function Attrs: nounwind uwtable
define internal noundef ptr @bool_vectorcall(ptr readnone captures(none) %0, ptr noundef readonly captures(none) %1, i64 noundef %2, ptr noundef %3) #1 {
  %5 = icmp eq ptr %3, null
  br i1 %5, label %8, label %6

6:                                                ; preds = %4
  %7 = tail call i32 @_PyArg_NoKwnames(ptr noundef nonnull @.str, ptr noundef nonnull %3) #4
  %.not = icmp eq i32 %7, 0
  br i1 %.not, label %18, label %8

8:                                                ; preds = %6, %4
  %9 = and i64 %2, 9223372036854775807
  %10 = icmp samesign ult i64 %9, 2
  br i1 %10, label %13, label %11

11:                                               ; preds = %8
  %12 = tail call i32 @_PyArg_CheckPositional(ptr noundef nonnull @.str, i64 noundef %9, i64 noundef 0, i64 noundef 1) #4
  %.not14 = icmp eq i32 %12, 0
  br i1 %.not14, label %18, label %.thread

13:                                               ; preds = %8
  %.not15 = icmp eq i64 %9, 0
  br i1 %.not15, label %.thread17, label %.thread

.thread:                                          ; preds = %11, %13
  %14 = load ptr, ptr %1, align 8, !tbaa !4
  %15 = tail call i32 @PyObject_IsTrue(ptr noundef %14) #4
  %.fr = freeze i32 %15
  %16 = icmp slt i32 %.fr, 0
  br i1 %16, label %18, label %17

17:                                               ; preds = %.thread
  %.not.i = icmp eq i32 %.fr, 0
  br i1 %.not.i, label %.thread17, label %18

.thread17:                                        ; preds = %13, %17
  br label %18

18:                                               ; preds = %.thread17, %17, %11, %.thread, %6
  %.0 = phi ptr [ null, %6 ], [ null, %11 ], [ null, %.thread ], [ @_Py_FalseStruct, %.thread17 ], [ @_Py_TrueStruct, %17 ]
  ret ptr %.0
}